target datalayout = "e-m:e-p270:32:32-p271:32:32-p272:64:64-i64:64-i128:128-f80:128-n8:16:32:64-S128"
target triple = "x86_64-pc-linux-gnu"

%"class.std::exception" = type { ptr }
%"class.nanobind::builtin_exception" = type <{ %"class.std::runtime_error", i32, [4 x i8] }>
%"class.std::runtime_error" = type { %"class.std::exception", %"struct.std::__cow_string" }
%"struct.std::__cow_string" = type { %union.anon }
%union.anon = type { ptr }

@.str.6 = private unnamed_addr constant [1 x i8] zeroinitializer, align 1
@_ZTVN8nanobind17builtin_exceptionE = unnamed_addr constant { [5 x ptr] } { [5 x ptr] [ptr null, ptr @_ZTIN8nanobind17builtin_exceptionE, ptr @_ZN8nanobind17builtin_exceptionD1Ev, ptr @_ZN8nanobind17builtin_exceptionD0Ev, ptr @_ZNKSt13runtime_error4whatEv] }, align 8

; Function Attrs: mustprogress uwtable
define void @_ZN8nanobind17builtin_exceptionC2ENS_14exception_typeEPKc(ptr noundef nonnull align 8 dereferenceable(20) %0, i32 noundef %1, ptr noundef %2) unnamed_addr #1 align 2 {
  %4 = alloca ptr, align 8
  %5 = alloca i32, align 4
  %6 = alloca ptr, align 8
  store ptr %0, ptr %4, align 8
  store i32 %1, ptr %5, align 4
  store ptr %2, ptr %6, align 8
  %7 = load ptr, ptr %4, align 8
  %8 = load ptr, ptr %6, align 8
  %9 = icmp ne ptr %8, null
  br i1 %9, label %10, label %12

10:                                               ; preds = %3
  %11 = load ptr, ptr %6, align 8
  br label %13

12:                                               ; preds = %3
  br label %13

13:                                               ; preds = %12, %10
  %14 = phi ptr [ %11, %10 ], [ @.str.6, %12 ]
  call void @_ZNSt13runtime_errorC2EPKc(ptr noundef nonnull align 8 dereferenceable(16) %7, ptr noundef %14)
  store ptr getelementptr inbounds inrange(-16, 24) ({ [5 x ptr] }, ptr @_ZTVN8nanobind17builtin_exceptionE, i32 0, i32 0, i32 2), ptr %7, align 8
  %15 = getelementptr inbounds nuw %"class.nanobind::builtin_exception", ptr %7, i32 0, i32 1
  %16 = load i32, ptr %5, align 4
  store i32 %16, ptr %15, align 8
  ret void
}