; Function Attrs: mustprogress uwtable
define void @_ZN8nanobind17builtin_exceptionC2ENS_14exception_typeEPKc(ptr noundef nonnull align 8 dereferenceable(20) %0, i32 noundef %1, ptr noundef %2) unnamed_addr #2 align 2 {
  %.not = icmp eq ptr %2, null
  %4 = select i1 %.not, ptr @.str.6, ptr %2
  tail call void @_ZNSt13runtime_errorC2EPKc(ptr noundef nonnull align 8 dereferenceable(16) %0, ptr noundef nonnull %4)
  store ptr getelementptr inbounds nuw inrange(-16, 24) (i8, ptr @_ZTVN8nanobind17builtin_exceptionE, i64 16), ptr %0, align 8
  %5 = getelementptr inbounds nuw i8, ptr %0, i64 16
  store i32 %1, ptr %5, align 8
  ret void
}